; Function Attrs: nounwind uwtable
define ptr @l_Lean_Elab_WF_packCalls___lambda__5(ptr noundef %0, ptr noundef readonly captures(none) %1, ptr noundef %2, ptr noundef %3, ptr noundef %4, ptr noundef %5, ptr noundef %6, ptr noundef %7, ptr noundef %8, ptr noundef %9, ptr noundef %10) local_unnamed_addr #0 {
  %12 = tail call ptr @l_Lean_Expr_getAppFn(ptr noundef %5) #5
  %13 = tail call zeroext i8 @l_Lean_Expr_isConst(ptr noundef %12) #5
  %14 = icmp eq i8 %13, 0
  br i1 %14, label %15, label %99

15:                                               ; preds = %11
  %16 = ptrtoint ptr %12 to i64
  %17 = and i64 %16, 1
  %.not58 = icmp eq i64 %17, 0
  br i1 %.not58, label %18, label %lean_dec.exit40

18:                                               ; preds = %15
  %19 = load i32, ptr %12, align 4, !tbaa !4
  %20 = icmp sgt i32 %19, 1
  br i1 %20, label %21, label %23, !prof !9

21:                                               ; preds = %18
  %22 = add nsw i32 %19, -1
  store i32 %22, ptr %12, align 4, !tbaa !4
  br label %lean_dec.exit40

23:                                               ; preds = %18
  %.not.i = icmp eq i32 %19, 0
  br i1 %.not.i, label %lean_dec.exit40, label %24

24:                                               ; preds = %23
  tail call void @lean_dec_ref_cold(ptr noundef nonnull %12) #5
  br label %lean_dec.exit40

lean_dec.exit40:                                  ; preds = %24, %23, %21, %15
  %25 = ptrtoint ptr %9 to i64
  %26 = and i64 %25, 1
  %.not59 = icmp eq i64 %26, 0
  br i1 %.not59, label %27, label %lean_dec.exit39

27:                                               ; preds = %lean_dec.exit40
  %28 = load i32, ptr %9, align 4, !tbaa !4
  %29 = icmp sgt i32 %28, 1
  br i1 %29, label %30, label %32, !prof !9

30:                                               ; preds = %27
  %31 = add nsw i32 %28, -1
  store i32 %31, ptr %9, align 4, !tbaa !4
  br label %lean_dec.exit39

32:                                               ; preds = %27
  %.not.i41 = icmp eq i32 %28, 0
  br i1 %.not.i41, label %lean_dec.exit39, label %33

33:                                               ; preds = %32
  tail call void @lean_dec_ref_cold(ptr noundef nonnull %9) #5
  br label %lean_dec.exit39

lean_dec.exit39:                                  ; preds = %33, %32, %30, %lean_dec.exit40
  %34 = ptrtoint ptr %8 to i64
  %35 = and i64 %34, 1
  %.not60 = icmp eq i64 %35, 0
  br i1 %.not60, label %36, label %lean_dec.exit38

36:                                               ; preds = %lean_dec.exit39
  %37 = load i32, ptr %8, align 4, !tbaa !4
  %38 = icmp sgt i32 %37, 1
  br i1 %38, label %39, label %41, !prof !9

39:                                               ; preds = %36
  %40 = add nsw i32 %37, -1
  store i32 %40, ptr %8, align 4, !tbaa !4
  br label %lean_dec.exit38

41:                                               ; preds = %36
  %.not.i43 = icmp eq i32 %37, 0
  br i1 %.not.i43, label %lean_dec.exit38, label %42

42:                                               ; preds = %41
  tail call void @lean_dec_ref_cold(ptr noundef nonnull %8) #5
  br label %lean_dec.exit38

lean_dec.exit38:                                  ; preds = %42, %41, %39, %lean_dec.exit39
  %43 = ptrtoint ptr %7 to i64
  %44 = and i64 %43, 1
  %.not61 = icmp eq i64 %44, 0
  br i1 %.not61, label %45, label %lean_dec.exit37

45:                                               ; preds = %lean_dec.exit38
  %46 = load i32, ptr %7, align 4, !tbaa !4
  %47 = icmp sgt i32 %46, 1
  br i1 %47, label %48, label %50, !prof !9

48:                                               ; preds = %45
  %49 = add nsw i32 %46, -1
  store i32 %49, ptr %7, align 4, !tbaa !4
  br label %lean_dec.exit37

50:                                               ; preds = %45
  %.not.i45 = icmp eq i32 %46, 0
  br i1 %.not.i45, label %lean_dec.exit37, label %51

51:                                               ; preds = %50
  tail call void @lean_dec_ref_cold(ptr noundef nonnull %7) #5
  br label %lean_dec.exit37

lean_dec.exit37:                                  ; preds = %51, %50, %48, %lean_dec.exit38
  %52 = ptrtoint ptr %6 to i64
  %53 = and i64 %52, 1
  %.not62 = icmp eq i64 %53, 0
  br i1 %.not62, label %54, label %lean_dec.exit36

54:                                               ; preds = %lean_dec.exit37
  %55 = load i32, ptr %6, align 4, !tbaa !4
  %56 = icmp sgt i32 %55, 1
  br i1 %56, label %57, label %59, !prof !9

57:                                               ; preds = %54
  %58 = add nsw i32 %55, -1
  store i32 %58, ptr %6, align 4, !tbaa !4
  br label %lean_dec.exit36

59:                                               ; preds = %54
  %.not.i47 = icmp eq i32 %55, 0
  br i1 %.not.i47, label %lean_dec.exit36, label %60

60:                                               ; preds = %59
  tail call void @lean_dec_ref_cold(ptr noundef nonnull %6) #5
  br label %lean_dec.exit36

lean_dec.exit36:                                  ; preds = %60, %59, %57, %lean_dec.exit37
  %61 = ptrtoint ptr %4 to i64
  %62 = and i64 %61, 1
  %.not63 = icmp eq i64 %62, 0
  br i1 %.not63, label %63, label %lean_dec.exit35

63:                                               ; preds = %lean_dec.exit36
  %64 = load i32, ptr %4, align 4, !tbaa !4
  %65 = icmp sgt i32 %64, 1
  br i1 %65, label %66, label %68, !prof !9

66:                                               ; preds = %63
  %67 = add nsw i32 %64, -1
  store i32 %67, ptr %4, align 4, !tbaa !4
  br label %lean_dec.exit35

68:                                               ; preds = %63
  %.not.i49 = icmp eq i32 %64, 0
  br i1 %.not.i49, label %lean_dec.exit35, label %69

69:                                               ; preds = %68
  tail call void @lean_dec_ref_cold(ptr noundef nonnull %4) #5
  br label %lean_dec.exit35

lean_dec.exit35:                                  ; preds = %69, %68, %66, %lean_dec.exit36
  %70 = ptrtoint ptr %3 to i64
  %71 = and i64 %70, 1
  %.not64 = icmp eq i64 %71, 0
  br i1 %.not64, label %72, label %lean_dec.exit34

72:                                               ; preds = %lean_dec.exit35
  %73 = load i32, ptr %3, align 4, !tbaa !4
  %74 = icmp sgt i32 %73, 1
  br i1 %74, label %75, label %77, !prof !9

75:                                               ; preds = %72
  %76 = add nsw i32 %73, -1
  store i32 %76, ptr %3, align 4, !tbaa !4
  br label %lean_dec.exit34

77:                                               ; preds = %72
  %.not.i51 = icmp eq i32 %73, 0
  br i1 %.not.i51, label %lean_dec.exit34, label %78

78:                                               ; preds = %77
  tail call void @lean_dec_ref_cold(ptr noundef nonnull %3) #5
  br label %lean_dec.exit34

lean_dec.exit34:                                  ; preds = %78, %77, %75, %lean_dec.exit35
  %79 = ptrtoint ptr %2 to i64
  %80 = and i64 %79, 1
  %.not65 = icmp eq i64 %80, 0
  br i1 %.not65, label %81, label %lean_dec.exit33

81:                                               ; preds = %lean_dec.exit34
  %82 = load i32, ptr %2, align 4, !tbaa !4
  %83 = icmp sgt i32 %82, 1
  br i1 %83, label %84, label %86, !prof !9

84:                                               ; preds = %81
  %85 = add nsw i32 %82, -1
  store i32 %85, ptr %2, align 4, !tbaa !4
  br label %lean_dec.exit33

86:                                               ; preds = %81
  %.not.i53 = icmp eq i32 %82, 0
  br i1 %.not.i53, label %lean_dec.exit33, label %87

87:                                               ; preds = %86
  tail call void @lean_dec_ref_cold(ptr noundef nonnull %2) #5
  br label %lean_dec.exit33

lean_dec.exit33:                                  ; preds = %87, %86, %84, %lean_dec.exit34
  tail call void @lean_inc_heartbeat() #5
  %88 = tail call noalias ptr @mi_malloc_small(i64 noundef 16) #5
  %89 = icmp eq ptr %88, null
  br i1 %89, label %90, label %lean_alloc_ctor.exit

90:                                               ; preds = %lean_dec.exit33
  tail call void @lean_internal_panic_out_of_memory() #6
  unreachable

lean_alloc_ctor.exit:                             ; preds = %lean_dec.exit33
  %91 = getelementptr inbounds nuw i8, ptr %88, i64 4
  store i32 1, ptr %88, align 4, !tbaa !4
  store i32 65552, ptr %91, align 4
  %92 = getelementptr inbounds nuw i8, ptr %88, i64 8
  store ptr %5, ptr %92, align 8, !tbaa !10
  tail call void @lean_inc_heartbeat() #5
  %93 = tail call noalias ptr @mi_malloc_small(i64 noundef 24) #5
  %94 = icmp eq ptr %93, null
  br i1 %94, label %95, label %lean_alloc_ctor.exit57

95:                                               ; preds = %lean_alloc_ctor.exit
  tail call void @lean_internal_panic_out_of_memory() #6
  unreachable

lean_alloc_ctor.exit57:                           ; preds = %lean_alloc_ctor.exit
  %96 = getelementptr inbounds nuw i8, ptr %93, i64 4
  store i32 1, ptr %93, align 4, !tbaa !4
  store i32 131096, ptr %96, align 4
  %97 = getelementptr inbounds nuw i8, ptr %93, i64 8
  store ptr %88, ptr %97, align 8, !tbaa !10
  %98 = getelementptr inbounds nuw i8, ptr %93, i64 16
  store ptr %10, ptr %98, align 8, !tbaa !10
  br label %lean_dec.exit

99:                                               ; preds = %11
  %100 = tail call ptr @l_Lean_Elab_WF_packCalls___lambda__4(ptr noundef %5, ptr noundef %12, ptr noundef %0, ptr noundef %1, ptr noundef %2, ptr noundef %3, ptr noundef %4, ptr nonnull poison, ptr noundef %6, ptr noundef %7, ptr noundef %8, ptr noundef %9, ptr noundef %10)
  %101 = ptrtoint ptr %12 to i64
  %102 = and i64 %101, 1
  %.not = icmp eq i64 %102, 0
  br i1 %.not, label %103, label %lean_dec.exit

103:                                              ; preds = %99
  %104 = load i32, ptr %12, align 4, !tbaa !4
  %105 = icmp sgt i32 %104, 1
  br i1 %105, label %106, label %108, !prof !9

106:                                              ; preds = %103
  %107 = add nsw i32 %104, -1
  store i32 %107, ptr %12, align 4, !tbaa !4
  br label %lean_dec.exit

108:                                              ; preds = %103
  %.not.i55 = icmp eq i32 %104, 0
  br i1 %.not.i55, label %lean_dec.exit, label %109

109:                                              ; preds = %108
  tail call void @lean_dec_ref_cold(ptr noundef nonnull %12) #5
  br label %lean_dec.exit

lean_dec.exit:                                    ; preds = %99, %106, %108, %109, %lean_alloc_ctor.exit57
  %.0 = phi ptr [ %93, %lean_alloc_ctor.exit57 ], [ %100, %109 ], [ %100, %108 ], [ %100, %106 ], [ %100, %99 ]
  ret ptr %.0
}